target datalayout = "e-m:e-p270:32:32-p271:32:32-p272:64:64-i64:64-i128:128-f80:128-n8:16:32:64-S128"
target triple = "x86_64-pc-linux-gnu"

@hf_rach_gps_pos_cpi = internal global i32 0, align 4
@hf_rach_gps_pos_lat = internal global i32 0, align 4
@hf_rach_gps_pos_long = internal global i32 0, align 4
@.str.216 = private unnamed_addr constant [40 x i8] c"NULL GPS Position (latitude == 0x40000)\00", align 1
@.str.217 = private unnamed_addr constant [41 x i8] c"NULL GPS Position (longitude == 0x80000)\00", align 1

; Function Attrs: nounwind uwtable
define internal void @dissect_gmr1_rach_gps_pos(ptr noundef %0, i32 noundef %1, ptr noundef %2, ptr noundef %3) #0 {
  %5 = alloca ptr, align 8
  %6 = alloca i32, align 4
  %7 = alloca ptr, align 8
  %8 = alloca ptr, align 8
  %9 = alloca i32, align 4
  %10 = alloca i32, align 4
  store ptr %0, ptr %5, align 8
  store i32 %1, ptr %6, align 4
  store ptr %2, ptr %7, align 8
  store ptr %3, ptr %8, align 8
  %11 = load ptr, ptr %5, align 8
  %12 = load i32, ptr %6, align 4
  %13 = call i32 @tvb_get_ntohl(ptr noundef %11, i32 noundef %12)
  %14 = lshr i32 %13, 12
  %15 = and i32 %14, 524287
  store i32 %15, ptr %9, align 4
  %16 = load ptr, ptr %5, align 8
  %17 = load i32, ptr %6, align 4
  %18 = add i32 %17, 1
  %19 = call i32 @tvb_get_ntohl(ptr noundef %16, i32 noundef %18)
  %20 = and i32 %19, 1048575
  store i32 %20, ptr %10, align 4
  %21 = load i32, ptr %9, align 4
  %22 = icmp eq i32 %21, 262144
  br i1 %22, label %23, label %30

23:                                               ; preds = %4
  %24 = load ptr, ptr %8, align 8
  %25 = load i32, ptr @hf_rach_gps_pos_lat, align 4
  %26 = load ptr, ptr %5, align 8
  %27 = load i32, ptr %6, align 4
  %28 = load i32, ptr %9, align 4
  %29 = call ptr (ptr, i32, ptr, i32, i32, i32, ptr, ...) @proto_tree_add_int_format(ptr noundef %24, i32 noundef %25, ptr noundef %26, i32 noundef %27, i32 noundef 5, i32 noundef %28, ptr noundef @.str.216)
  br label %58

30:                                               ; preds = %4
  %31 = load i32, ptr %10, align 4
  %32 = icmp eq i32 %31, 524288
  br i1 %32, label %33, label %40

33:                                               ; preds = %30
  %34 = load ptr, ptr %8, align 8
  %35 = load i32, ptr @hf_rach_gps_pos_long, align 4
  %36 = load ptr, ptr %5, align 8
  %37 = load i32, ptr %6, align 4
  %38 = load i32, ptr %10, align 4
  %39 = call ptr (ptr, i32, ptr, i32, i32, i32, ptr, ...) @proto_tree_add_int_format(ptr noundef %34, i32 noundef %35, ptr noundef %36, i32 noundef %37, i32 noundef 5, i32 noundef %38, ptr noundef @.str.217)
  br label %58

40:                                               ; preds = %30
  br label %41

41:                                               ; preds = %40
  %42 = load ptr, ptr %8, align 8
  %43 = load i32, ptr @hf_rach_gps_pos_cpi, align 4
  %44 = load ptr, ptr %5, align 8
  %45 = load i32, ptr %6, align 4
  %46 = call ptr @proto_tree_add_item(ptr noundef %42, i32 noundef %43, ptr noundef %44, i32 noundef %45, i32 noundef 1, i32 noundef 0)
  %47 = load ptr, ptr %8, align 8
  %48 = load i32, ptr @hf_rach_gps_pos_lat, align 4
  %49 = load ptr, ptr %5, align 8
  %50 = load i32, ptr %6, align 4
  %51 = call ptr @proto_tree_add_item(ptr noundef %47, i32 noundef %48, ptr noundef %49, i32 noundef %50, i32 noundef 3, i32 noundef 0)
  %52 = load ptr, ptr %8, align 8
  %53 = load i32, ptr @hf_rach_gps_pos_long, align 4
  %54 = load ptr, ptr %5, align 8
  %55 = load i32, ptr %6, align 4
  %56 = add i32 %55, 2
  %57 = call ptr @proto_tree_add_item(ptr noundef %52, i32 noundef %53, ptr noundef %54, i32 noundef %56, i32 noundef 3, i32 noundef 0)
  br label %58

58:                                               ; preds = %41, %33, %23
  ret void
}