; Function Attrs: nounwind uwtable
define internal fastcc void @dissect_gmr1_rach_gps_pos(ptr noundef %0, ptr noundef %1) unnamed_addr #0 {
  %3 = tail call i32 @tvb_get_ntohl(ptr noundef %0, i32 noundef 12) #7
  %4 = tail call i32 @tvb_get_ntohl(ptr noundef %0, i32 noundef 13) #7
  %5 = and i32 %3, 2147479552
  %6 = icmp eq i32 %5, 1073741824
  br i1 %6, label %7, label %10

7:                                                ; preds = %2
  %8 = load i32, ptr @hf_rach_gps_pos_lat, align 4
  %9 = tail call ptr (ptr, i32, ptr, i32, i32, i32, ptr, ...) @proto_tree_add_int_format(ptr noundef %1, i32 noundef %8, ptr noundef %0, i32 noundef 12, i32 noundef 5, i32 noundef 262144, ptr noundef nonnull @.str.216) #7
  br label %23

10:                                               ; preds = %2
  %11 = and i32 %4, 1048575
  %12 = icmp eq i32 %11, 524288
  br i1 %12, label %13, label %16

13:                                               ; preds = %10
  %14 = load i32, ptr @hf_rach_gps_pos_long, align 4
  %15 = tail call ptr (ptr, i32, ptr, i32, i32, i32, ptr, ...) @proto_tree_add_int_format(ptr noundef %1, i32 noundef %14, ptr noundef %0, i32 noundef 12, i32 noundef 5, i32 noundef 524288, ptr noundef nonnull @.str.217) #7
  br label %23

16:                                               ; preds = %10
  %17 = load i32, ptr @hf_rach_gps_pos_cpi, align 4
  %18 = tail call ptr @proto_tree_add_item(ptr noundef %1, i32 noundef %17, ptr noundef %0, i32 noundef 12, i32 noundef 1, i32 noundef 0) #7
  %19 = load i32, ptr @hf_rach_gps_pos_lat, align 4
  %20 = tail call ptr @proto_tree_add_item(ptr noundef %1, i32 noundef %19, ptr noundef %0, i32 noundef 12, i32 noundef 3, i32 noundef 0) #7
  %21 = load i32, ptr @hf_rach_gps_pos_long, align 4
  %22 = tail call ptr @proto_tree_add_item(ptr noundef %1, i32 noundef %21, ptr noundef %0, i32 noundef 14, i32 noundef 3, i32 noundef 0) #7
  br label %23

23:                                               ; preds = %16, %13, %7
  ret void
}